target datalayout = "e-m:e-p270:32:32-p271:32:32-p272:64:64-i64:64-i128:128-f80:128-n8:16:32:64-S128"
target triple = "x86_64-pc-linux-gnu"

%struct.quic_pkt_hdr_st = type { i32, i32, %struct.quic_conn_id_st, %struct.quic_conn_id_st, [4 x i8], ptr, i64, i64, ptr }
%struct.quic_conn_id_st = type { i8, [20 x i8] }

; Function Attrs: inlinehint nounwind uwtable
define internal i32 @ossl_quic_pkt_type_can_share_dgram(i32 noundef %0) #3 {
  %2 = alloca i32, align 4
  store i32 %0, ptr %2, align 4, !tbaa !12
  %3 = load i32, ptr %2, align 4, !tbaa !12
  %4 = call i32 @ossl_quic_pkt_type_is_encrypted(i32 noundef %3)
  ret i32 %4
}

; Function Attrs: inlinehint nounwind uwtable
define internal i32 @ossl_quic_pkt_type_is_encrypted(i32 noundef %0) #3 {
  %2 = alloca i32, align 4
  %3 = alloca i32, align 4
  store i32 %0, ptr %3, align 4, !tbaa !12
  %4 = load i32, ptr %3, align 4, !tbaa !12
  switch i32 %4, label %6 [
    i32 4, label %5
    i32 6, label %5
  ]

5:                                                ; preds = %1, %1
  store i32 0, ptr %2, align 4
  br label %7

6:                                                ; preds = %1
  store i32 1, ptr %2, align 4
  br label %7

7:                                                ; preds = %6, %5
  %8 = load i32, ptr %2, align 4
  ret i32 %8
}

; Function Attrs: inlinehint nounwind uwtable
define internal i32 @ossl_quic_pkt_type_must_be_last(i32 noundef %0) #3 {
  %2 = alloca i32, align 4
  store i32 %0, ptr %2, align 4, !tbaa !12
  %3 = load i32, ptr %2, align 4, !tbaa !12
  %4 = call i32 @ossl_quic_pkt_type_can_share_dgram(i32 noundef %3)
  %5 = icmp ne i32 %4, 0
  br i1 %5, label %6, label %9

6:                                                ; preds = %1
  %7 = load i32, ptr %2, align 4, !tbaa !12
  %8 = icmp eq i32 %7, 5
  br label %9

9:                                                ; preds = %6, %1
  %10 = phi i1 [ true, %1 ], [ %8, %6 ]
  %11 = zext i1 %10 to i32
  ret i32 %11
}

; Function Attrs: inlinehint nounwind uwtable
define internal i64 @ossl_quic_vlint_encode_len(i64 noundef %0) #3 {
  %2 = alloca i64, align 8
  %3 = alloca i64, align 8
  store i64 %0, ptr %3, align 8, !tbaa !14
  %4 = load i64, ptr %3, align 8, !tbaa !14
  %5 = icmp ult i64 %4, 64
  br i1 %5, label %6, label %7

6:                                                ; preds = %1
  store i64 1, ptr %2, align 8
  br label %20

7:                                                ; preds = %1
  %8 = load i64, ptr %3, align 8, !tbaa !14
  %9 = icmp ult i64 %8, 16384
  br i1 %9, label %10, label %11

10:                                               ; preds = %7
  store i64 2, ptr %2, align 8
  br label %20

11:                                               ; preds = %7
  %12 = load i64, ptr %3, align 8, !tbaa !14
  %13 = icmp ult i64 %12, 1073741824
  br i1 %13, label %14, label %15

14:                                               ; preds = %11
  store i64 4, ptr %2, align 8
  br label %20

15:                                               ; preds = %11
  %16 = load i64, ptr %3, align 8, !tbaa !14
  %17 = icmp ule i64 %16, 4611686018427387903
  br i1 %17, label %18, label %19

18:                                               ; preds = %15
  store i64 8, ptr %2, align 8
  br label %20

19:                                               ; preds = %15
  store i64 0, ptr %2, align 8
  br label %20

20:                                               ; preds = %19, %18, %14, %10, %6
  %21 = load i64, ptr %2, align 8
  ret i64 %21
}

; Function Attrs: inlinehint nounwind uwtable
define internal i32 @ossl_quic_pkt_type_has_pn(i32 noundef %0) #3 {
  %2 = alloca i32, align 4
  store i32 %0, ptr %2, align 4, !tbaa !12
  %3 = load i32, ptr %2, align 4, !tbaa !12
  %4 = call i32 @ossl_quic_pkt_type_is_encrypted(i32 noundef %3)
  ret i32 %4
}

; Function Attrs: nounwind uwtable
define i32 @ossl_quic_wire_get_encoded_pkt_hdr_len(i64 noundef %0, ptr noundef %1) #0 {
  %3 = alloca i32, align 4
  %4 = alloca i64, align 8
  %5 = alloca ptr, align 8
  %6 = alloca i64, align 8
  %7 = alloca i64, align 8
  %8 = alloca i32, align 4
  store i64 %0, ptr %4, align 8, !tbaa !14
  store ptr %1, ptr %5, align 8, !tbaa !37
  call void @llvm.lifetime.start.p0(i64 8, ptr %6) #7
  store i64 0, ptr %6, align 8, !tbaa !14
  call void @llvm.lifetime.start.p0(i64 8, ptr %7) #7
  %9 = load ptr, ptr %5, align 8, !tbaa !37
  %10 = load i32, ptr %9, align 8
  %11 = lshr i32 %10, 14
  %12 = and i32 %11, 1
  %13 = icmp ne i32 %12, 0
  br i1 %13, label %27, label %14

14:                                               ; preds = %2
  %15 = load ptr, ptr %5, align 8, !tbaa !37
  %16 = load i32, ptr %15, align 8
  %17 = and i32 %16, 255
  %18 = icmp eq i32 %17, 5
  br i1 %18, label %19, label %28

19:                                               ; preds = %14
  %20 = load ptr, ptr %5, align 8, !tbaa !37
  %21 = getelementptr inbounds nuw %struct.quic_pkt_hdr_st, ptr %20, i32 0, i32 2
  %22 = getelementptr inbounds nuw %struct.quic_conn_id_st, ptr %21, i32 0, i32 0
  %23 = load i8, ptr %22, align 8, !tbaa !41
  %24 = zext i8 %23 to i64
  %25 = load i64, ptr %4, align 8, !tbaa !14
  %26 = icmp ne i64 %24, %25
  br i1 %26, label %27, label %28

27:                                               ; preds = %19, %2
  store i32 0, ptr %3, align 4
  store i32 1, ptr %8, align 4
  br label %173

28:                                               ; preds = %19, %14
  %29 = load ptr, ptr %5, align 8, !tbaa !37
  %30 = load i32, ptr %29, align 8
  %31 = and i32 %30, 255
  %32 = icmp eq i32 %31, 5
  br i1 %32, label %33, label %67

33:                                               ; preds = %28
  %34 = load ptr, ptr %5, align 8, !tbaa !37
  %35 = getelementptr inbounds nuw %struct.quic_pkt_hdr_st, ptr %34, i32 0, i32 2
  %36 = getelementptr inbounds nuw %struct.quic_conn_id_st, ptr %35, i32 0, i32 0
  %37 = load i8, ptr %36, align 8, !tbaa !41
  %38 = zext i8 %37 to i64
  %39 = load i64, ptr %4, align 8, !tbaa !14
  %40 = icmp ne i64 %38, %39
  br i1 %40, label %56, label %41

41:                                               ; preds = %33
  %42 = load i64, ptr %4, align 8, !tbaa !14
  %43 = icmp ugt i64 %42, 20
  br i1 %43, label %56, label %44

44:                                               ; preds = %41
  %45 = load ptr, ptr %5, align 8, !tbaa !37
  %46 = load i32, ptr %45, align 8
  %47 = lshr i32 %46, 10
  %48 = and i32 %47, 15
  %49 = icmp slt i32 %48, 1
  br i1 %49, label %56, label %50

50:                                               ; preds = %44
  %51 = load ptr, ptr %5, align 8, !tbaa !37
  %52 = load i32, ptr %51, align 8
  %53 = lshr i32 %52, 10
  %54 = and i32 %53, 15
  %55 = icmp sgt i32 %54, 4
  br i1 %55, label %56, label %57

56:                                               ; preds = %50, %44, %41, %33
  store i32 0, ptr %3, align 4
  store i32 1, ptr %8, align 4
  br label %173

57:                                               ; preds = %50
  %58 = load i64, ptr %4, align 8, !tbaa !14
  %59 = add i64 1, %58
  %60 = load ptr, ptr %5, align 8, !tbaa !37
  %61 = load i32, ptr %60, align 8
  %62 = lshr i32 %61, 10
  %63 = and i32 %62, 15
  %64 = zext i32 %63 to i64
  %65 = add i64 %59, %64
  %66 = trunc i64 %65 to i32
  store i32 %66, ptr %3, align 4
  store i32 1, ptr %8, align 4
  br label %173

67:                                               ; preds = %28
  %68 = load ptr, ptr %5, align 8, !tbaa !37
  %69 = getelementptr inbounds nuw %struct.quic_pkt_hdr_st, ptr %68, i32 0, i32 2
  %70 = getelementptr inbounds nuw %struct.quic_conn_id_st, ptr %69, i32 0, i32 0
  %71 = load i8, ptr %70, align 8, !tbaa !41
  %72 = zext i8 %71 to i32
  %73 = icmp sgt i32 %72, 20
  br i1 %73, label %81, label %74

74:                                               ; preds = %67
  %75 = load ptr, ptr %5, align 8, !tbaa !37
  %76 = getelementptr inbounds nuw %struct.quic_pkt_hdr_st, ptr %75, i32 0, i32 3
  %77 = getelementptr inbounds nuw %struct.quic_conn_id_st, ptr %76, i32 0, i32 0
  %78 = load i8, ptr %77, align 1, !tbaa !45
  %79 = zext i8 %78 to i32
  %80 = icmp sgt i32 %79, 20
  br i1 %80, label %81, label %82

81:                                               ; preds = %74, %67
  store i32 0, ptr %3, align 4
  store i32 1, ptr %8, align 4
  br label %173

82:                                               ; preds = %74
  %83 = load ptr, ptr %5, align 8, !tbaa !37
  %84 = getelementptr inbounds nuw %struct.quic_pkt_hdr_st, ptr %83, i32 0, i32 2
  %85 = getelementptr inbounds nuw %struct.quic_conn_id_st, ptr %84, i32 0, i32 0
  %86 = load i8, ptr %85, align 8, !tbaa !41
  %87 = zext i8 %86 to i32
  %88 = add nsw i32 6, %87
  %89 = add nsw i32 %88, 1
  %90 = load ptr, ptr %5, align 8, !tbaa !37
  %91 = getelementptr inbounds nuw %struct.quic_pkt_hdr_st, ptr %90, i32 0, i32 3
  %92 = getelementptr inbounds nuw %struct.quic_conn_id_st, ptr %91, i32 0, i32 0
  %93 = load i8, ptr %92, align 1, !tbaa !45
  %94 = zext i8 %93 to i32
  %95 = add nsw i32 %89, %94
  %96 = sext i32 %95 to i64
  %97 = load i64, ptr %6, align 8, !tbaa !14
  %98 = add i64 %97, %96
  store i64 %98, ptr %6, align 8, !tbaa !14
  %99 = load ptr, ptr %5, align 8, !tbaa !37
  %100 = load i32, ptr %99, align 8
  %101 = and i32 %100, 255
  %102 = call i32 @ossl_quic_pkt_type_has_pn(i32 noundef %101)
  %103 = icmp ne i32 %102, 0
  br i1 %103, label %104, label %125

104:                                              ; preds = %82
  %105 = load ptr, ptr %5, align 8, !tbaa !37
  %106 = load i32, ptr %105, align 8
  %107 = lshr i32 %106, 10
  %108 = and i32 %107, 15
  %109 = icmp slt i32 %108, 1
  br i1 %109, label %116, label %110

110:                                              ; preds = %104
  %111 = load ptr, ptr %5, align 8, !tbaa !37
  %112 = load i32, ptr %111, align 8
  %113 = lshr i32 %112, 10
  %114 = and i32 %113, 15
  %115 = icmp sgt i32 %114, 4
  br i1 %115, label %116, label %117

116:                                              ; preds = %110, %104
  store i32 0, ptr %3, align 4
  store i32 1, ptr %8, align 4
  br label %173

117:                                              ; preds = %110
  %118 = load ptr, ptr %5, align 8, !tbaa !37
  %119 = load i32, ptr %118, align 8
  %120 = lshr i32 %119, 10
  %121 = and i32 %120, 15
  %122 = zext i32 %121 to i64
  %123 = load i64, ptr %6, align 8, !tbaa !14
  %124 = add i64 %123, %122
  store i64 %124, ptr %6, align 8, !tbaa !14
  br label %125

125:                                              ; preds = %117, %82
  %126 = load ptr, ptr %5, align 8, !tbaa !37
  %127 = load i32, ptr %126, align 8
  %128 = and i32 %127, 255
  %129 = icmp eq i32 %128, 1
  br i1 %129, label %130, label %146

130:                                              ; preds = %125
  %131 = load ptr, ptr %5, align 8, !tbaa !37
  %132 = getelementptr inbounds nuw %struct.quic_pkt_hdr_st, ptr %131, i32 0, i32 6
  %133 = load i64, ptr %132, align 8, !tbaa !47
  %134 = call i64 @ossl_quic_vlint_encode_len(i64 noundef %133)
  store i64 %134, ptr %7, align 8, !tbaa !14
  %135 = load i64, ptr %7, align 8, !tbaa !14
  %136 = icmp ne i64 %135, 0
  br i1 %136, label %138, label %137

137:                                              ; preds = %130
  store i32 0, ptr %3, align 4
  store i32 1, ptr %8, align 4
  br label %173

138:                                              ; preds = %130
  %139 = load i64, ptr %7, align 8, !tbaa !14
  %140 = load ptr, ptr %5, align 8, !tbaa !37
  %141 = getelementptr inbounds nuw %struct.quic_pkt_hdr_st, ptr %140, i32 0, i32 6
  %142 = load i64, ptr %141, align 8, !tbaa !47
  %143 = add i64 %139, %142
  %144 = load i64, ptr %6, align 8, !tbaa !14
  %145 = add i64 %144, %143
  store i64 %145, ptr %6, align 8, !tbaa !14
  br label %146

146:                                              ; preds = %138, %125
  %147 = load ptr, ptr %5, align 8, !tbaa !37
  %148 = load i32, ptr %147, align 8
  %149 = and i32 %148, 255
  %150 = call i32 @ossl_quic_pkt_type_must_be_last(i32 noundef %149)
  %151 = icmp ne i32 %150, 0
  br i1 %151, label %170, label %152

152:                                              ; preds = %146
  %153 = load ptr, ptr %5, align 8, !tbaa !37
  %154 = getelementptr inbounds nuw %struct.quic_pkt_hdr_st, ptr %153, i32 0, i32 7
  %155 = load i64, ptr %154, align 8, !tbaa !48
  %156 = load ptr, ptr %5, align 8, !tbaa !37
  %157 = load i32, ptr %156, align 8
  %158 = lshr i32 %157, 10
  %159 = and i32 %158, 15
  %160 = zext i32 %159 to i64
  %161 = add i64 %155, %160
  %162 = call i64 @ossl_quic_vlint_encode_len(i64 noundef %161)
  store i64 %162, ptr %7, align 8, !tbaa !14
  %163 = load i64, ptr %7, align 8, !tbaa !14
  %164 = icmp ne i64 %163, 0
  br i1 %164, label %166, label %165

165:                                              ; preds = %152
  store i32 0, ptr %3, align 4
  store i32 1, ptr %8, align 4
  br label %173

166:                                              ; preds = %152
  %167 = load i64, ptr %7, align 8, !tbaa !14
  %168 = load i64, ptr %6, align 8, !tbaa !14
  %169 = add i64 %168, %167
  store i64 %169, ptr %6, align 8, !tbaa !14
  br label %170

170:                                              ; preds = %166, %146
  %171 = load i64, ptr %6, align 8, !tbaa !14
  %172 = trunc i64 %171 to i32
  store i32 %172, ptr %3, align 4
  store i32 1, ptr %8, align 4
  br label %173

173:                                              ; preds = %170, %165, %137, %116, %81, %57, %56, %27
  call void @llvm.lifetime.end.p0(i64 8, ptr %7) #7
  call void @llvm.lifetime.end.p0(i64 8, ptr %6) #7
  %174 = load i32, ptr %3, align 4
  ret i32 %174
}