; Function Attrs: mustprogress nofree norecurse nosync nounwind willreturn memory(argmem: read) uwtable
define i32 @ossl_quic_wire_get_encoded_pkt_hdr_len(i64 noundef %0, ptr noundef readonly captures(none) %1) local_unnamed_addr #5 {
  %3 = load i32, ptr %1, align 8
  %4 = and i32 %3, 16384
  %.not = icmp eq i32 %4, 0
  br i1 %.not, label %5, label %ossl_quic_vlint_encode_len.exit

5:                                                ; preds = %2
  %6 = and i32 %3, 255
  %7 = icmp eq i32 %6, 5
  %8 = getelementptr inbounds nuw i8, ptr %1, i64 8
  %9 = load i8, ptr %8, align 8, !tbaa !32
  br i1 %7, label %10, label %21

10:                                               ; preds = %5
  %11 = zext i8 %9 to i64
  %.not45 = icmp ne i64 %0, %11
  %12 = icmp samesign ugt i64 %0, 20
  %or.cond = select i1 %.not45, i1 true, i1 %12
  br i1 %or.cond, label %ossl_quic_vlint_encode_len.exit, label %13

13:                                               ; preds = %10
  %14 = lshr i32 %3, 10
  %15 = and i32 %14, 15
  %16 = add nsw i32 %15, -5
  %or.cond51 = icmp ult i32 %16, -4
  br i1 %or.cond51, label %ossl_quic_vlint_encode_len.exit, label %17

17:                                               ; preds = %13
  %18 = trunc nuw i64 %0 to i32
  %19 = add nuw nsw i32 %18, 1
  %20 = add nuw nsw i32 %19, %15
  br label %ossl_quic_vlint_encode_len.exit

21:                                               ; preds = %5
  %22 = icmp ugt i8 %9, 20
  br i1 %22, label %ossl_quic_vlint_encode_len.exit, label %23

23:                                               ; preds = %21
  %24 = getelementptr inbounds nuw i8, ptr %1, i64 29
  %25 = load i8, ptr %24, align 1, !tbaa !36
  %26 = icmp ugt i8 %25, 20
  br i1 %26, label %ossl_quic_vlint_encode_len.exit, label %27

27:                                               ; preds = %23
  %narrow = add nuw nsw i8 %9, 7
  %narrow46 = add nuw nsw i8 %narrow, %25
  %28 = zext nneg i8 %narrow46 to i64
  %29 = and i32 %3, 253
  %switch.selectcmp.i.i.not = icmp eq i32 %29, 4
  br i1 %switch.selectcmp.i.i.not, label %63, label %30

30:                                               ; preds = %27
  %31 = lshr i32 %3, 10
  %32 = and i32 %31, 15
  %33 = add nsw i32 %32, -5
  %or.cond52 = icmp ult i32 %33, -4
  br i1 %or.cond52, label %ossl_quic_vlint_encode_len.exit, label %.thread

.thread:                                          ; preds = %30
  %34 = zext nneg i32 %32 to i64
  %35 = add nuw nsw i64 %28, %34
  %36 = icmp eq i32 %6, 1
  br i1 %36, label %37, label %.thread71

37:                                               ; preds = %.thread
  %38 = getelementptr inbounds nuw i8, ptr %1, i64 64
  %39 = load i64, ptr %38, align 8, !tbaa !40
  %40 = icmp ult i64 %39, 64
  br i1 %40, label %.thread59, label %41

41:                                               ; preds = %37
  %42 = icmp ult i64 %39, 16384
  br i1 %42, label %.thread59, label %43

43:                                               ; preds = %41
  %44 = icmp ult i64 %39, 1073741824
  br i1 %44, label %.thread59, label %45

45:                                               ; preds = %43
  %46 = icmp ult i64 %39, 4611686018427387904
  br i1 %46, label %.thread59, label %ossl_quic_vlint_encode_len.exit

.thread59:                                        ; preds = %43, %41, %37, %45
  %.0.i.ph = phi i64 [ 4, %43 ], [ 2, %41 ], [ 1, %37 ], [ 8, %45 ]
  %47 = add nuw nsw i64 %39, %35
  %48 = add nuw nsw i64 %47, %.0.i.ph
  br label %.thread71

.thread71:                                        ; preds = %.thread, %.thread59
  %.163 = phi i64 [ %48, %.thread59 ], [ %35, %.thread ]
  %49 = getelementptr inbounds nuw i8, ptr %1, i64 72
  %50 = load i64, ptr %49, align 8, !tbaa !37
  %51 = lshr i32 %3, 10
  %52 = and i32 %51, 15
  %53 = zext nneg i32 %52 to i64
  %54 = add i64 %50, %53
  %55 = icmp ult i64 %54, 64
  br i1 %55, label %select.unfold64, label %56

56:                                               ; preds = %.thread71
  %57 = icmp ult i64 %54, 16384
  br i1 %57, label %select.unfold64, label %58

58:                                               ; preds = %56
  %59 = icmp ult i64 %54, 1073741824
  br i1 %59, label %select.unfold64, label %60

60:                                               ; preds = %58
  %61 = icmp ult i64 %54, 4611686018427387904
  br i1 %61, label %select.unfold64, label %ossl_quic_vlint_encode_len.exit

select.unfold64:                                  ; preds = %60, %.thread71, %56, %58
  %.0.i54.ph = phi i64 [ 4, %58 ], [ 2, %56 ], [ 1, %.thread71 ], [ 8, %60 ]
  %62 = add nuw nsw i64 %.0.i54.ph, %.163
  br label %63

63:                                               ; preds = %27, %select.unfold64
  %.2 = phi i64 [ %62, %select.unfold64 ], [ %28, %27 ]
  %64 = trunc i64 %.2 to i32
  br label %ossl_quic_vlint_encode_len.exit

ossl_quic_vlint_encode_len.exit:                  ; preds = %60, %45, %30, %21, %23, %13, %2, %10, %63, %17
  %.036 = phi i32 [ %20, %17 ], [ %64, %63 ], [ 0, %10 ], [ 0, %2 ], [ 0, %13 ], [ 0, %23 ], [ 0, %21 ], [ 0, %30 ], [ 0, %45 ], [ 0, %60 ]
  ret i32 %.036
}